; Function Attrs: mustprogress nofree norecurse nosync nounwind willreturn memory(read, argmem: readwrite, inaccessiblemem: none) uwtable
define void @_ZN6icu_7511NGramParser6lookupEi(ptr nocapture noundef nonnull align 8 dereferenceable(48) %this, i32 noundef %thisNgram) local_unnamed_addr #5 align 2 {
entry:
  %ngramCount = getelementptr inbounds i8, ptr %this, i64 24
  %0 = load i32, ptr %ngramCount, align 8
  %add = add nsw i32 %0, 1
  store i32 %add, ptr %ngramCount, align 8
  %ngramList = getelementptr inbounds i8, ptr %this, i64 16
  %1 = load ptr, ptr %ngramList, align 8
  %arrayidx.i = getelementptr inbounds i8, ptr %1, i64 128
  %2 = load i32, ptr %arrayidx.i, align 4
  %cmp.not.i = icmp sgt i32 %2, %thisNgram
  %spec.select.i = select i1 %cmp.not.i, i32 0, i32 32
  %add3.i = or disjoint i32 %spec.select.i, 16
  %idxprom4.i = zext nneg i32 %add3.i to i64
  %arrayidx5.i = getelementptr inbounds i32, ptr %1, i64 %idxprom4.i
  %3 = load i32, ptr %arrayidx5.i, align 4
  %cmp6.not.i = icmp sgt i32 %3, %thisNgram
  %index.1.i = select i1 %cmp6.not.i, i32 %spec.select.i, i32 %add3.i
  %add10.i = or disjoint i32 %index.1.i, 8
  %idxprom11.i = zext nneg i32 %add10.i to i64
  %arrayidx12.i = getelementptr inbounds i32, ptr %1, i64 %idxprom11.i
  %4 = load i32, ptr %arrayidx12.i, align 4
  %cmp13.not.i = icmp sgt i32 %4, %thisNgram
  %index.2.i = select i1 %cmp13.not.i, i32 %index.1.i, i32 %add10.i
  %add17.i = or disjoint i32 %index.2.i, 4
  %idxprom18.i = zext nneg i32 %add17.i to i64
  %arrayidx19.i = getelementptr inbounds i32, ptr %1, i64 %idxprom18.i
  %5 = load i32, ptr %arrayidx19.i, align 4
  %cmp20.not.i = icmp sgt i32 %5, %thisNgram
  %index.3.i = select i1 %cmp20.not.i, i32 %index.2.i, i32 %add17.i
  %add24.i = add nuw nsw i32 %index.3.i, 2
  %idxprom25.i = zext nneg i32 %add24.i to i64
  %arrayidx26.i = getelementptr inbounds i32, ptr %1, i64 %idxprom25.i
  %6 = load i32, ptr %arrayidx26.i, align 4
  %cmp27.not.i = icmp sgt i32 %6, %thisNgram
  %index.4.i = select i1 %cmp27.not.i, i32 %index.3.i, i32 %add24.i
  %add31.i = add nuw nsw i32 %index.4.i, 1
  %idxprom32.i = zext nneg i32 %add31.i to i64
  %arrayidx33.i = getelementptr inbounds i32, ptr %1, i64 %idxprom32.i
  %7 = load i32, ptr %arrayidx33.i, align 4
  %cmp34.not.i = icmp sgt i32 %7, %thisNgram
  %index.5.i = select i1 %cmp34.not.i, i32 %index.4.i, i32 %add31.i
  %idxprom38.i = zext nneg i32 %index.5.i to i64
  %arrayidx39.i = getelementptr inbounds i32, ptr %1, i64 %idxprom38.i
  %8 = load i32, ptr %arrayidx39.i, align 4
  %cmp40.i = icmp sgt i32 %8, %thisNgram
  %sub.i = sext i1 %cmp40.i to i32
  %index.6.i = add nsw i32 %index.5.i, %sub.i
  %cmp43.i = icmp slt i32 %index.6.i, 0
  br i1 %cmp43.i, label %if.end, label %lor.lhs.false.i

lor.lhs.false.i:                                  ; preds = %entry
  %idxprom44.i = zext nneg i32 %index.6.i to i64
  %arrayidx45.i = getelementptr inbounds i32, ptr %1, i64 %idxprom44.i
  %9 = load i32, ptr %arrayidx45.i, align 4
  %cmp46.not.i = icmp eq i32 %9, %thisNgram
  br i1 %cmp46.not.i, label %if.then, label %if.end

if.then:                                          ; preds = %lor.lhs.false.i
  %hitCount = getelementptr inbounds i8, ptr %this, i64 28
  %10 = load i32, ptr %hitCount, align 4
  %add2 = add nsw i32 %10, 1
  store i32 %add2, ptr %hitCount, align 4
  br label %if.end

if.end:                                           ; preds = %lor.lhs.false.i, %entry, %if.then
  ret void
}